Vf:__ZN10emscripten8internal13MethodInvokerIM9FlvClientFiiiEiPS2_JiiEE6invokeERKS4_S5_ii
ua:floatReadValueFromPointer
Zk:__ZNSt3__212basic_stringIcNS_11char_traitsIcEEN10__cxxabiv112_GLOBAL__N_112malloc_allocIcEEE6insertIPKcEENS_9enable_ifIXaasr21__is_forward_iteratorIT_EE5valuesr38__libcpp_string_gets_noexcept_iteratorISC_EE5valueENS_11__wrap_iterIPcEEE4typeENSD_ISA_EESC_SC_
wa:__emval_call_void_method
Di:__ZN10__cxxabiv112_GLOBAL__N_110construct_Ev
ya:throwInternalError
za:get_first_emval
ph:_memchr
Ca:___assert_fail
Ue:_ConcealMb
Ea:ClassHandle
am:__ZN10__cxxabiv112_GLOBAL__N_111short_allocINSt3__26vectorINS3_INS0_11string_pairENS1_IS4_Lj4096EEEEENS1_IS6_Lj4096EEEEELj4096EEC2ERNS0_5arenaILj4096EEE
r:undef
Ha:__emval_get_property
E:Math_cos
ii:__ZL25default_terminate_handlerv
kf:_H264SwDecGetInfo
X:abortStackOverflow
Mi:__ZNKSt3__218__libcpp_refstring5c_strEv
Pi:__ZNSt12length_errorD0Ev
gg:__ZN12VideoDecoder6decodeER12MemoryStream
Ja:_emscripten_memcpy_big
Ka:runDestructor
kk:__ZN10__cxxabiv112_GLOBAL__N_118parse_alignof_typeINS0_2DbEEEPKcS4_S4_RT_
pj:__ZN10__cxxabiv112_GLOBAL__N_15arenaILj4096EE10deallocateEPcj
Kg:__GLOBAL__sub_I_bind_cpp
Qh:__ZNSt3__218__libcpp_refstringC2EPKc
qm:___udivmoddi4
Wf:__ZN9FlvClient17decodeVideoBufferEv
wd:_h264bsdDecodeSliceData
df:_h264bsdMatrixCoefficients
ag:__ZN9FlvClient14setAudioBufferEN10emscripten3valE
Bd:_h264bsdIntraPrediction
Pj:__ZNKSt3__212basic_stringIcNS_11char_traitsIcEEN10__cxxabiv112_GLOBAL__N_112malloc_allocIcEEE7compareEjjPKcj
rh:_wctomb
Ph:__ZdlPv
Pc:stackSave
Ki:__ZNSt11logic_errorD0Ev
mk:__ZN10__cxxabiv112_GLOBAL__N_121parse_const_cast_exprINS0_2DbEEEPKcS4_S4_RT_
Wa:init_ClassHandle
dj:__ZN10__cxxabiv112_GLOBAL__N_111short_allocINSt3__26vectorINS0_11string_pairENS1_IS4_Lj4096EEEEELj4096EEC2ERNS0_5arenaILj4096EEE
x:tempValue
ok:__ZN10__cxxabiv112_GLOBAL__N_121parse_conversion_exprINS0_2DbEEEPKcS4_S4_RT_
Xa:___syscall140
zg:__ZNSt3__214__split_bufferIP11VideoPacketNS_9allocatorIS2_EEE10push_frontEOS2_
Ff:_mad_stream_sync
Za:___syscall146
qe:_h264bsdInitStorage
we:_h264bsdInitDpb
Jg:_main
sj:__ZN10__cxxabiv112_GLOBAL__N_111short_allocINSt3__26vectorINS3_INS0_11string_pairENS1_IS4_Lj4096EEEEENS1_IS6_Lj4096EEEEELj4096EE10deallocateEPS8_j
Sc:setThrew
R:Math_clz32
Te:_h264bsdConceal
$a:RegisteredClass
hl:__ZNSt3__26vectorIN10__cxxabiv112_GLOBAL__N_111string_pairENS2_11short_allocIS3_Lj4096EEEE26__swap_out_circular_bufferERNS_14__split_bufferIS3_RS5_EE
Zh:__ZNSt3__211char_traitsIcE6assignEPcjc
Ee:_h264bsdReorderRefPicList
Fh:___towrite
bb:embind_init_charCodes
tl:__ZN10__cxxabiv112_GLOBAL__N_119parse_unscoped_nameINS0_2DbEEEPKcS4_S4_RT_
rg:__ZNK10emscripten3val2asINSt3__212basic_stringIcNS2_11char_traitsIcEENS2_9allocatorIcEEEEJEEET_DpT0_
pf:_mad_bit_nextbyte
jj:__ZNSt3__212basic_stringIcNS_11char_traitsIcEEN10__cxxabiv112_GLOBAL__N_112malloc_allocIcEEE6appendEPKcj
Oc:stackAlloc
xe:_h264bsdResetStorage
Lj:__ZNSt3__26vectorINS0_IN10__cxxabiv112_GLOBAL__N_111string_pairENS2_11short_allocIS3_Lj4096EEEEENS4_IS6_Lj4096EEEE21__push_back_slow_pathIS6_EEvOT_
yk:__ZN10__cxxabiv112_GLOBAL__N_120parse_pack_expansionINS0_2DbEEEPKcS4_S4_RT_
Wi:__ZNK10__cxxabiv121__vmi_class_type_info16search_above_dstEPNS_19__dynamic_cast_infoEPKvS4_ib
na:invoke_ii
Se:_FilterHorChromaEdge
qd:_h264bsdCheckFrameNum
Rd:_h264bsdInterpolateMidHalf
gb:createNamedFunction
rl:__ZN10__cxxabiv112_GLOBAL__N_117parse_nested_nameINS0_2DbEEEPKcS4_S4_RT_
Ej:__ZNSt3__212basic_stringIcNS_11char_traitsIcEEN10__cxxabiv112_GLOBAL__N_112malloc_allocIcEEE6insertEjPKc
$d:_h264bsdIntraChromaPrediction
zd:_h264bsdWriteMacroblock
Ig:__ZNSt3__212__deque_baseI11VideoPacketNS_9allocatorIS1_EEE5clearEv
kb:_pthread_once
Xi:__ZNK10__cxxabiv121__vmi_class_type_info16search_below_dstEPNS_19__dynamic_cast_infoEPKvib
oa:invoke_viii
lb:init_embind
ob:heap32VectorToArray
pb:__emval_lookupTypes
ma:invoke_vii
$g:_dummy_738
ne:_h264bsdNumMbPart
qb:__emval_call_method
ng:__ZN12MemoryStreamD2Ev
bl:__ZN10__cxxabiv112_GLOBAL__N_121parse_destructor_nameINS0_2DbEEEPKcS4_S4_RT_
Tl:__ZN10__cxxabiv112_GLOBAL__N_111string_pairC2ILj7EEERAT__Kc
Ge:_ShellSort
vb:ensureOverloadTable
Hg:__ZNSt3__25queueI11VideoPacketNS_5dequeIS1_NS_9allocatorIS1_EEEEED2Ev
Zi:__ZNK10__cxxabiv122__base_class_type_info27has_unambiguous_public_baseEPNS_19__dynamic_cast_infoEPvi
Jk:__ZN10__cxxabiv112_GLOBAL__N_121parse_unresolved_typeINS0_2DbEEEPKcS4_S4_RT_
yb:replacePublicSymbol
xg:__ZNSt3__25dequeI11VideoPacketNS_9allocatorIS1_EEE19__add_back_capacityEv
em:___cxa_guard_abort
Ke:_h264bsdCheckGapsInFrameNum
ae:_h264bsdIsNeighbourAvailable
Ab:ClassHandle_deleteLater
zi:__ZNK10__cxxabiv120__si_class_type_info16search_above_dstEPNS_19__dynamic_cast_infoEPKvS4_ib
Bb:RegisteredPointer_deleteObject
Ae:_h264bsdComputeSliceGroupMap
kc:__emval_incref
Xk:__ZNSt3__212basic_stringIcNS_11char_traitsIcEEN10__cxxabiv112_GLOBAL__N_112malloc_allocIcEEE23__append_forward_unsafeIPKcEERS7_T_SC_
Cf:_III_decode
Yd:_h264bsdMbPartPredMode
Jf:_mad_synth_mute
z:tempRet0
fi:__ZNSt3__212basic_stringIcNS_11char_traitsIcEENS_9allocatorIcEEE6appendEPKcj
Ld:_h264bsdInterpolateVerHalf
Lf:__ZN38EmscriptenBindingInitializer_FlvClientC2Ev
Sl:__ZN10__cxxabiv112_GLOBAL__N_111string_pairC2ILj9EEERAT__Kc
_e:_h264bsdPicWidth
M:Math_log
sa:invoke_iii
Ua:__emval_new_object
Hb:_pthread_getspecific
nf:_mad_bit_init
gd:_h264bsdDecodeExpGolombUnsigned
Hk:__ZNSt3__212basic_stringIcNS_11char_traitsIcEEN10__cxxabiv112_GLOBAL__N_112malloc_allocIcEEE6assignEPKcj
Dj:__ZNSt3__26vectorINS0_IN10__cxxabiv112_GLOBAL__N_111string_pairENS2_11short_allocIS3_Lj4096EEEEENS4_IS6_Lj4096EEEE24__emplace_back_slow_pathIJS5_EEEvDpOT_
lk:__ZN10__cxxabiv112_GLOBAL__N_118parse_alignof_exprINS0_2DbEEEPKcS4_S4_RT_
xl:__ZN10__cxxabiv112_GLOBAL__N_111short_allocINSt3__26vectorINS0_11string_pairENS1_IS4_Lj4096EEEEELj4096EEC2IS4_EERKNS1_IT_Lj4096EEE
_l:__ZN10__cxxabiv112_GLOBAL__N_111short_allocINS0_11string_pairELj4096EEC2ERNS0_5arenaILj4096EEE
ha:nullFunc_viiii
Wg:___stdio_seek
qk:__ZN10__cxxabiv112_GLOBAL__N_121parse_unresolved_nameINS0_2DbEEEPKcS4_S4_RT_
ym:dynCall_i
kh:_pop_arg
Ub:requireHandle
Ng:_malloc
$l:__ZNSt3__26vectorINS0_IN10__cxxabiv112_GLOBAL__N_111string_pairENS2_11short_allocIS3_Lj4096EEEEENS4_IS6_Lj4096EEEEC2EjRKS6_RKS7_
Pl:__ZN10__cxxabiv112_GLOBAL__N_111string_pairC2ILj8EEERAT__Kc
Xb:exposePublicSymbol
f:HEAPU32
wf:_mad_synth_frame
wg:__ZN10emscripten3val3setIA5_cA21_cEEvRKT_RKT0_
H:Math_acos
_b:__embind_register_memory_view
Xf:__ZNK9FlvClient13getBufferTimeEv
S:abort
jd:_h264bsdDecodeVuiParameters
Zl:__ZN10__cxxabiv112_GLOBAL__N_117parse_call_offsetEPKcS2_
Ei:__ZN10__cxxabiv112_GLOBAL__N_19destruct_EPv
Il:__ZNKSt3__26vectorINS0_IN10__cxxabiv112_GLOBAL__N_111string_pairENS2_11short_allocIS3_Lj4096EEEEENS4_IS6_Lj4096EEEE8max_sizeEv
gh:___lockfile
aj:___cxa_demangle
Ze:_h264bsdNextOutputPicture
Dh:_swapc
If:_free_bitrate
fa:nullFunc_viiiiii
Ok:__ZN10__cxxabiv112_GLOBAL__N_123parse_unnamed_type_nameINS0_2DbEEEPKcS4_S4_RT_
v:tempBigInt
re:_h264bsdStoreSeqParamSet
mg:__ZN10FlvDecoder9initAudioEii
Mk:__ZN10__cxxabiv112_GLOBAL__N_122parse_unqualified_nameINS0_2DbEEEPKcS4_S4_RT_
ni:__ZNK10__cxxabiv116__shim_type_info5noop1Ev
ti:__ZN10__cxxabiv18is_equalEPKSt9type_infoS2_b
Qc:stackRestore
Si:__ZN10__cxxabiv119__pointer_type_infoD0Ev
id:_H264SwDecMalloc
Gi:__ZSt11__terminatePFvvE
sd:_h264bsdCheckPicOrderCntLsb
Yl:__ZN10__cxxabiv112_GLOBAL__N_110save_valueIjED2Ev
Gj:__ZN10__cxxabiv112_GLOBAL__N_111string_pairC2ERKS1_
Bm:dynCall_ii
ij:__ZNK10__cxxabiv112_GLOBAL__N_111string_pair4sizeEv
Qe:_FilterVerChromaEdge
Sd:_h264bsdInterpolateChromaHorVer
K:Math_atan2
uk:__ZN10__cxxabiv112_GLOBAL__N_125parse_noexcept_expressionINS0_2DbEEEPKcS4_S4_RT_
Bf:_III_sideinfo
wh:_wcrtomb
ud:_h264bsdCheckDeltaPicOrderCnt
vd:_h264bsdCheckPriorPicsFlag
Ic:FUNCTION_TABLE_viii
Ug:___stdio_close
nd:_h264bsdDecodePicParamSet
G:Math_tan
le:_h264bsdDecodeResidualBlockCavlc
Ie:_h264bsdFreeDpb
Sj:__ZN10__cxxabiv112_GLOBAL__N_119parse_template_argsINS0_2DbEEEPKcS4_S4_RT_
ul:__ZN10__cxxabiv112_GLOBAL__N_119parse_discriminatorEPKcS2_
xa:_init
Mj:__ZN10__cxxabiv112_GLOBAL__N_119parse_function_typeINS0_2DbEEEPKcS4_S4_RT_
im:runPostSets
yd:_h264bsdDecodeMacroblock
Ah:___lctrans
hi:__ZNSt3__211char_traitsIcE7compareEPKcS3_j
C:Math_sqrt
Fa:_emscripten_asm_const_ii
Ga:getShiftFromSize
lj:__ZN10__cxxabiv112_GLOBAL__N_15arenaILj4096EED2Ev
yf:_synth_half
Zf:__ZN10emscripten8internal12GetterPolicyIM9FlvClientKFNS_3valEvEE3getIS2_EEPNS0_7_EM_VALERKS5_RKT_
Bl:__ZNSt3__214__split_bufferINS_6vectorINS1_IN10__cxxabiv112_GLOBAL__N_111string_pairENS3_11short_allocIS4_Lj4096EEEEENS5_IS7_Lj4096EEEEERNS5_IS9_Lj4096EEEEC2EjjSB_
Th:__ZNKSt3__218__libcpp_refstring15__uses_refcountEv
Fk:__ZN10__cxxabiv112_GLOBAL__N_116parse_throw_exprINS0_2DbEEEPKcS4_S4_RT_
ei:__ZNSt3__212basic_stringIcNS_11char_traitsIcEENS_9allocatorIcEEE9__grow_byEjjjjjj
pi:__ZNK10__cxxabiv117__class_type_info9can_catchEPKNS_16__shim_type_infoERPv
Ma:RegisteredPointer_fromWireType
sk:__ZN10__cxxabiv112_GLOBAL__N_114parse_dot_exprINS0_2DbEEEPKcS4_S4_RT_
Yc:_h264bsdCountLeadingZeros
Na:init_RegisteredPointer
ed:_h264bsdDecodeSeqParamSet
ke:_DetermineNc
Ra:makeClassHandle
Ad:_H264SwDecMemcpy
Fe:_h264bsdMarkDecRefPic
ml:__ZN10__cxxabiv112_GLOBAL__N_111string_pairC2ILj5EEERAT__Kc
vk:__ZN10__cxxabiv112_GLOBAL__N_116parse_arrow_exprINS0_2DbEEEPKcS4_S4_RT_
bf:_h264bsdCheckValidParamSets
cj:__ZN10__cxxabiv112_GLOBAL__N_12DbC2ILj4096EEERNS0_5arenaIXT_EEE
ah:_isupper
Aj:__ZN10__cxxabiv112_GLOBAL__N_118parse_block_invokeINS0_2DbEEEPKcS4_S4_RT_
Gk:__ZNSt3__212basic_stringIcNS_11char_traitsIcEEN10__cxxabiv112_GLOBAL__N_112malloc_allocIcEEE6assignEPKc
Og:_free
hg:__ZN10emscripten8internal12MethodCallerIiJlEE4callEPNS0_7_EM_VALEPKcOl
Va:__emval_allocateDestructors
um:___uremdi3
Wd:_FillRow1
jg:__ZN12VideoDecoder14broadwayDecodeEv
Ak:__ZN10__cxxabiv112_GLOBAL__N_122parse_sizeof_expr_exprINS0_2DbEEEPKcS4_S4_RT_
k:ABORT
uf:_mad_frame_init
Bg:__ZNSt3__214__split_bufferIP11VideoPacketRNS_9allocatorIS2_EEE10push_frontERKS2_
Vl:__ZN10__cxxabiv112_GLOBAL__N_110save_valueIbEC2ERb
Xc:_h264bsdProcessChromaDc
qh:_pad_674
j:tempDoublePtr
Af:_dct32
di:__ZNSt3__212basic_stringIcNS_11char_traitsIcEENS_9allocatorIcEEE6appendEjc
ac:_emscripten_get_callstack_js
Re:_FilterHorChroma
F:Math_sin
ab:___cxa_find_matching_catch
hh:___unlockfile
tk:__ZN10__cxxabiv112_GLOBAL__N_114parse_new_exprINS0_2DbEEEPKcS4_S4_RT_
Em:dynCall_iiiii
dm:___cxa_guard_release
Nl:__ZNSt3__26vectorIN10__cxxabiv112_GLOBAL__N_111string_pairENS2_11short_allocIS3_Lj4096EEEE8allocateEj
fm:__ZSt15get_new_handlerv
Ai:__ZNK10__cxxabiv120__si_class_type_info16search_below_dstEPNS_19__dynamic_cast_infoEPKvib
ej:__ZNSt3__26vectorINS0_INS0_IN10__cxxabiv112_GLOBAL__N_111string_pairENS2_11short_allocIS3_Lj4096EEEEENS4_IS6_Lj4096EEEEENS4_IS8_Lj4096EEEE24__emplace_back_slow_pathIJRNS2_5arenaILj4096EEEEEEvDpOT_
db:___setErrNo
mm:_i64Add
pk:__ZN10__cxxabiv112_GLOBAL__N_123parse_dynamic_cast_exprINS0_2DbEEEPKcS4_S4_RT_
Uh:__ZNKSt3__221__basic_string_commonILb1EE20__throw_length_errorEv
ui:__ZNK10__cxxabiv117__class_type_info24process_found_base_classEPNS_19__dynamic_cast_infoEPvi
fb:___resumeException
Ji:__ZNSt11logic_errorD2Ev
Oj:__ZNSt3__212basic_stringIcNS_11char_traitsIcEEN10__cxxabiv112_GLOBAL__N_112malloc_allocIcEEEC2ERKS7_jjRKS6_
ad:_h264bsdShowBits32
Dm:dynCall_v
_g:_pthread_self
Be:_h264bsdDecodeSliceGroupMap
yg:__ZNSt3__214__split_bufferIP11VideoPacketNS_9allocatorIS2_EEE9push_backEOS2_
ba:nullFunc_ii
ca:nullFunc_viii
Od:_h264bsdInterpolateMidHorQuarter
mb:constNoSmartPtrRawPointerToWireType
ge:_h264bsdPredModeIntra16x16
sb:ClassHandle_delete
$c:_h264bsdMoreRbspData
fd:_H264SwDecMemset
W:abortOnCannotGrowMemory
Of:__ZN10emscripten8internal7InvokerIP9FlvClientJEE6invokeEPFS3_vE
$j:__ZN10__cxxabiv112_GLOBAL__N_118parse_substitutionINS0_2DbEEEPKcS4_S4_RT_
ze:_h264bsdIsEndOfPicture
Cl:__ZNSt3__26vectorINS0_INS0_IN10__cxxabiv112_GLOBAL__N_111string_pairENS2_11short_allocIS3_Lj4096EEEEENS4_IS6_Lj4096EEEEENS4_IS8_Lj4096EEEE26__swap_out_circular_bufferERNS_14__split_bufferIS8_RS9_EE
dg:___clang_call_terminate
ri:__ZNK10__cxxabiv117__class_type_info16search_below_dstEPNS_19__dynamic_cast_infoEPKvib
xb:downcastPointer
Ek:__ZN10__cxxabiv112_GLOBAL__N_111string_pairC2ILj6EEERAT__Kc
Bi:__ZNK10__cxxabiv120__si_class_type_info27has_unambiguous_public_baseEPNS_19__dynamic_cast_infoEPvi
Ci:__ZNSt9type_infoD2Ev
Yi:__ZNK10__cxxabiv121__vmi_class_type_info27has_unambiguous_public_baseEPNS_19__dynamic_cast_infoEPvi
bm:__ZNSt3__26vectorINS0_INS0_IN10__cxxabiv112_GLOBAL__N_111string_pairENS2_11short_allocIS3_Lj4096EEEEENS4_IS6_Lj4096EEEEENS4_IS8_Lj4096EEEEC2EjRKS8_RKS9_
_h:__ZNSt3__211char_traitsIcE11to_int_typeEc
Hj:__ZNSt3__26vectorIN10__cxxabiv112_GLOBAL__N_111string_pairENS2_11short_allocIS3_Lj4096EEEE21__push_back_slow_pathIRKS3_EEvOT_
Nk:__ZN10__cxxabiv112_GLOBAL__N_120parse_ctor_dtor_nameINS0_2DbEEEPKcS4_S4_RT_
zh:___strerror_l
eh:_vfprintf
Db:__embind_register_integer
il:__ZNSt3__214__split_bufferIN10__cxxabiv112_GLOBAL__N_111string_pairERNS2_11short_allocIS3_Lj4096EEEED2Ev
Pe:_FilterHorLumaEdge
Rm:b9
Fb:__emval_take_value
he:_h264bsdIsByteAligned
Li:__ZNKSt11logic_error4whatEv
Ll:__ZNSt3__214__split_bufferINS_6vectorIN10__cxxabiv112_GLOBAL__N_111string_pairENS3_11short_allocIS4_Lj4096EEEEERNS5_IS7_Lj4096EEEED2Ev
Me:_h264bsdFlushDpb
Jh:_snprintf
oe:_h264bsdDecodeNalUnit
gl:__ZNSt3__214__split_bufferIN10__cxxabiv112_GLOBAL__N_111string_pairERNS2_11short_allocIS3_Lj4096EEEEC2EjjS6_
P:Math_min
Xe:_h264bsdDecode
Tc:setTempRet0
gi:__ZNSt3__214__ptr_in_rangeIcEEbPKT_S3_S3_
Yk:__ZNSt3__212basic_stringIcNS_11char_traitsIcEEN10__cxxabiv112_GLOBAL__N_112malloc_allocIcEEE9push_backEc
Hf:_mad_timer_set
Lg:__ZN53EmscriptenBindingInitializer_native_and_builtin_typesC2Ev
Lb:runDestructors
Xl:__ZN10__cxxabiv112_GLOBAL__N_110save_valueIbED2Ev
Ob:_pthread_key_create
tc:_pthread_setspecific
Sb:nonConstNoSmartPtrRawPointerToWireType
Ij:__ZN10__cxxabiv112_GLOBAL__N_118parse_builtin_typeINS0_2DbEEEPKcS4_S4_RT_
_c:_h264bsdGetBits
He:_h264bsdAllocateDpbImage
uh:_frexpl
ue:_h264bsdActivateParamSets
da:nullFunc_v
_a:throwBindingError
wc:___cxa_throw
_:nullFunc_i
hb:__embind_register_class_property
_d:_h264bsdIntra4x4Prediction
Sh:__ZNSt11logic_errorC2EPKc
Dk:__ZN10__cxxabiv112_GLOBAL__N_117parse_typeid_exprINS0_2DbEEEPKcS4_S4_RT_
Nd:_h264bsdInterpolateHorVerQuarter
jm:_i64Subtract
rm:___udivdi3
Gf:_decode_header
Mf:__ZN10emscripten8internal13getActualTypeI9FlvClientEEPKvPT_
ug:__ZN12VideoDecoder12decodeHeaderER12MemoryStreami
Uk:__ZN10__cxxabiv112_GLOBAL__N_111string_pairC2ILj12EEERAT__Kc
pg:__ZN12AudioDecoderD2Ev
yc:count_emval_handles
Zd:_h264bsdIntra16x16Prediction
Vc:_h264bsdProcessBlock
De:_h264bsdValidParamSets
fl:__ZNKSt3__220__vector_base_commonILb1EE20__throw_length_errorEv
me:_h264bsdMarkSliceCorrupted
hc:RegisteredPointer_getPointee
$e:_h264bsdPicHeight
sc:__embind_register_std_wstring
wl:__ZN10__cxxabiv112_GLOBAL__N_111string_pairC2ILj22EEERAT__Kc
kd:_h264bsdFlushBits
i:DYNAMICTOP_PTR
Pg:_calloc
Gc:FUNCTION_TABLE_vii
qf:_mad_bit_skip
El:__ZN10__cxxabiv112_GLOBAL__N_111short_allocINSt3__26vectorINS3_INS0_11string_pairENS1_IS4_Lj4096EEEEENS1_IS6_Lj4096EEEEELj4096EE8allocateEj
tj:__ZNSt3__212basic_stringIcNS_11char_traitsIcEEN10__cxxabiv112_GLOBAL__N_112malloc_allocIcEEE21__grow_by_and_replaceEjjjjjjPKc
mf:_H264SwDecNextPicture
wj:__ZN10__cxxabiv112_GLOBAL__N_111short_allocINS0_11string_pairELj4096EE10deallocateEPS2_j
Yg:___errno_location
Yj:__ZN10__cxxabiv112_GLOBAL__N_111string_pairC2EOS1_
pa:invoke_v
Yf:__ZN9FlvClient13setBufferTimeEN10emscripten3valE
uc:genericPointerToWireType
vc:registerType
lg:__Z11yuv420toRGBPhS_S_S_jj
tm:_memmove
fg:__ZN10FlvDecoder17decodeVideoBufferEv
hm:___cxa_is_pointer_type
xc:__emval_new_cstring
Am:dynCall_vii
yi:__ZN10__cxxabiv120__si_class_type_infoD0Ev
zc:requireFunction
oh:_strerror
rd:_h264bsdCheckIdrPicId
Ac:__formatString
Pk:__ZN10__cxxabiv112_GLOBAL__N_119parse_operator_nameINS0_2DbEEEPKcS4_S4_RT_
zf:_synth_full
ka:invoke_i
md:_h264bsdCompareSeqParamSets
de:_h264bsdNeighbour4x4BlockB
ee:_h264bsdNeighbour4x4BlockC
Ih:_strlen
ce:_h264bsdNeighbour4x4BlockA
fe:_h264bsdNeighbour4x4BlockD
Ik:__ZN10__cxxabiv112_GLOBAL__N_126parse_base_unresolved_nameINS0_2DbEEEPKcS4_S4_RT_
Fi:__ZSt9terminatev
Z:nullFunc_viiiii
cm:___cxa_guard_acquire
rj:__ZN10__cxxabiv112_GLOBAL__N_15arenaILj4096EE8align_upEj
dk:__ZN10__cxxabiv112_GLOBAL__N_116parse_expressionINS0_2DbEEEPKcS4_S4_RT_
ih:_out
Da:__ZSt18uncaught_exceptionv
Hl:__ZNSt3__212basic_stringIcNS_11char_traitsIcEEN10__cxxabiv112_GLOBAL__N_112malloc_allocIcEEE6insertEjPKcj
Uf:__ZN9FlvClient9initAudioEii
l:STACKTOP
cd:_h264bsdSetCurrImageMbPointers
Vg:___stdio_write
Vj:__ZNSt3__2plIcNS_11char_traitsIcEEN10__cxxabiv112_GLOBAL__N_112malloc_allocIcEEEENS_12basic_stringIT_T0_T1_EERKSB_PKS8_
aa:nullFunc_vii
Ck:__ZN10__cxxabiv112_GLOBAL__N_137parse_sizeof_function_param_pack_exprINS0_2DbEEEPKcS4_S4_RT_
jk:__ZN10__cxxabiv112_GLOBAL__N_123parse_prefix_expressionINS0_2DbEEEPKcS4_S4_RKNT_6StringERS5_
p:threwValue
nl:__ZN10__cxxabiv112_GLOBAL__N_121parse_floating_numberIfNS0_2DbEEEPKcS4_S4_RT0_
La:throwInstanceAlreadyDeleted
_k:__ZNSt3__212basic_stringIcNS_11char_traitsIcEEN10__cxxabiv112_GLOBAL__N_112malloc_allocIcEEE9__grow_byEjjjjjj
og:__ZN10FlvDecoder5clearEv
Eg:__ZN10MP3Decoder12decodeHeaderEPKh
Dl:__ZNSt3__214__split_bufferINS_6vectorINS1_IN10__cxxabiv112_GLOBAL__N_111string_pairENS3_11short_allocIS4_Lj4096EEEEENS5_IS7_Lj4096EEEEERNS5_IS9_Lj4096EEEED2Ev
Kf:__GLOBAL__sub_I_FlvClient_cpp
nk:__ZN10__cxxabiv112_GLOBAL__N_115parse_call_exprINS0_2DbEEEPKcS4_S4_RT_
Dg:__ZN10MP3Decoder6decodeEv
w:tempBigIntS
J:Math_atan
ig:__ZN10emscripten3val3setIA5_cA23_cEEvRKT_RKT0_
Lc:FUNCTION_TABLE_viiiiii
Sa:whenDependentTypesAreResolved
Mc:FUNCTION_TABLE_iii
Ce:_h264bsdCheckAccessUnitBoundary
Rf:__ZN10emscripten8internal13MethodInvokerIM9FlvClientFvNS_3valEEvPS2_JS3_EE6invokeERKS5_S6_PNS0_7_EM_VALE
gm:___cxa_can_catch
Ii:__ZNSt9exceptionD2Ev
Fm:dynCall_viiiiii
O:Math_imul
oi:__ZNK10__cxxabiv116__shim_type_info5noop2Ev
pl:__ZN10__cxxabiv112_GLOBAL__N_121parse_floating_numberIeNS0_2DbEEEPKcS4_S4_RT0_
Hd:_h264bsdGetNeighbourMb
Ya:ClassHandle_clone
Zg:___pthread_self_108
xm:dynCall_viiiii
Nf:__ZN10emscripten8internal14raw_destructorI9FlvClientEEvPT_
Xj:__ZN10__cxxabiv112_GLOBAL__N_111string_pairaSEOS1_
B:Math_abs
Ml:__ZN10__cxxabiv112_GLOBAL__N_111short_allocINSt3__26vectorINS0_11string_pairENS1_IS4_Lj4096EEEEELj4096EE8allocateEj
xi:___dynamic_cast
nm:_bitshift64Lshr
xf:_mad_frame_finish
qa:invoke_iiiii
wk:__ZN10__cxxabiv112_GLOBAL__N_127parse_reinterpret_cast_exprINS0_2DbEEEPKcS4_S4_RT_
sg:__ZN10FlvDecoder11decodeAudioElR12MemoryStream
ga:nullFunc_iii
cb:__emval_as
si:__ZNK10__cxxabiv117__class_type_info27has_unambiguous_public_baseEPNS_19__dynamic_cast_infoEPvi
hk:__ZN10__cxxabiv112_GLOBAL__N_120parse_function_paramINS0_2DbEEEPKcS4_S4_RT_
Cj:__ZN10__cxxabiv112_GLOBAL__N_119parse_cv_qualifiersEPKcS2_Rj
Qk:__ZN10__cxxabiv112_GLOBAL__N_111string_pairC2ILj11EEERAT__Kc
yh:___pthread_self_105
zm:dynCall_vi
ck:__ZN10__cxxabiv112_GLOBAL__N_112parse_numberEPKcS2_
c:HEAP32
Je:_h264bsdInitRefPicList
h:HEAPF64
Uc:getTempRet0
Bh:___lctrans_impl
Kj:__ZNSt3__26vectorIN10__cxxabiv112_GLOBAL__N_111string_pairENS2_11short_allocIS3_Lj4096EEEEC2EjRKS3_RKS5_
Sf:__ZN9FlvClient5CloseEv
jb:__emval_decref
ji:___cxa_get_globals_fast
je:_h264bsdDecodeExpGolombMapped
jl:__ZN10__cxxabiv112_GLOBAL__N_111short_allocINS0_11string_pairELj4096EE8allocateEj
Oi:__ZNSt3__215__refstring_imp12_GLOBAL__N_113rep_from_dataEPKc_176
la:invoke_vi
jf:_H264SwDecRelease
Fc:FUNCTION_TABLE_vi
td:_h264bsdCheckDeltaPicOrderCntBottom
$f:__ZNK9FlvClient14getAudioBufferEv
Ql:__ZN10__cxxabiv112_GLOBAL__N_111string_pairC2ILj4EEERAT__Kc
Mh:_fprintf
wb:new_
e:HEAPU16
m:STACK_MAX
Zb:__emval_get_method_caller
ff:_h264bsdSampleAspectRatio
Q:Math_max
Ec:FUNCTION_TABLE_i
Jc:FUNCTION_TABLE_v
xk:__ZN10__cxxabiv112_GLOBAL__N_122parse_static_cast_exprINS0_2DbEEEPKcS4_S4_RT_
yl:__ZNSt3__26vectorINS0_INS0_IN10__cxxabiv112_GLOBAL__N_111string_pairENS2_11short_allocIS3_Lj4096EEEEENS4_IS6_Lj4096EEEEENS4_IS8_Lj4096EEEE24__emplace_back_slow_pathIJS5_EEEvDpOT_
Eb:___cxa_allocate_exception
ol:__ZN10__cxxabiv112_GLOBAL__N_121parse_floating_numberIdNS0_2DbEEEPKcS4_S4_RT0_
Rj:__ZN10__cxxabiv112_GLOBAL__N_120parse_template_paramINS0_2DbEEEPKcS4_S4_RT_
Gm:dynCall_iii
xh:___pthread_self_448
Kc:FUNCTION_TABLE_iiiii
ld:_DecodeHrdParameters
jh:_getint
$h:__ZNSt3__212basic_stringIcNS_11char_traitsIcEENS_9allocatorIcEEEC2ERKS5_jjRKS4_
Vb:getTypeName
ia:invoke_iiii
Gh:_sn_write
bk:__ZN10__cxxabiv112_GLOBAL__N_117parse_vector_typeINS0_2DbEEEPKcS4_S4_RT_
Jb:throwUnboundTypeError
T:assert
Hh:_isxdigit
dh:_vsnprintf
Mb:requireRegisteredType
Nb:makeLegalFunctionName
L:Math_exp
Aa:upcastPointer
_i:__ZNK10__cxxabiv122__base_class_type_info16search_above_dstEPNS_19__dynamic_cast_infoEPKvS4_ib
Rb:shallowCopyInternalPointer
Ne:_h264bsdFilterPicture
ch:_memcmp
Dc:FUNCTION_TABLE_viiiii
al:__ZNSt3__212basic_stringIcNS_11char_traitsIcEEN10__cxxabiv112_GLOBAL__N_112malloc_allocIcEEEC2ERKS7_
ta:invoke_viiii
tf:_mad_stream_init
cf:_h264bsdVideoRange
Zc:_h264bsdRbspTrailingBits
Kl:__ZNSt3__26vectorINS0_IN10__cxxabiv112_GLOBAL__N_111string_pairENS2_11short_allocIS3_Lj4096EEEEENS4_IS6_Lj4096EEEE26__swap_out_circular_bufferERNS_14__split_bufferIS6_RS7_EE
hj:__ZNSt3__213__vector_baseIN10__cxxabiv112_GLOBAL__N_111string_pairENS2_11short_allocIS3_Lj4096EEEED2Ev
Rh:__ZNSt3__215__refstring_imp12_GLOBAL__N_113data_from_repEPNS1_9_Rep_baseE
cc:___gxx_personality_v0
$i:__ZNK10__cxxabiv122__base_class_type_info16search_below_dstEPNS_19__dynamic_cast_infoEPKvib
Ti:__ZNK10__cxxabiv119__pointer_type_info9can_catchEPKNS_16__shim_type_infoERPv
Kk:__ZN10__cxxabiv112_GLOBAL__N_132parse_unresolved_qualifier_levelINS0_2DbEEEPKcS4_S4_RT_
bc:setDelayFunction
Pd:_h264bsdInterpolateHorHalf
Zj:__ZNSt3__26vectorIN10__cxxabiv112_GLOBAL__N_111string_pairENS2_11short_allocIS3_Lj4096EEEE21__push_back_slow_pathIS3_EEvOT_
dc:extendError
Qd:_h264bsdInterpolateMidVerQuarter
q:setjmpId
Le:_h264bsdDpbOutputPicture
ef:_h264bsdCroppingParams
vj:__ZN10__cxxabiv112_GLOBAL__N_112malloc_allocIcE10deallocateEPcj
dd:_h264bsdExtractNalUnit
uj:__ZN10__cxxabiv112_GLOBAL__N_112malloc_allocIcE8allocateEj
Wj:__ZN10__cxxabiv112_GLOBAL__N_111string_pairC2ENSt3__212basic_stringIcNS2_11char_traitsIcEENS0_12malloc_allocIcEEEE
Ni:__ZNSt3__218__libcpp_refstringD2Ev
fc:__reallyNegative
Wl:__ZN10__cxxabiv112_GLOBAL__N_118parse_special_nameINS0_2DbEEEPKcS4_S4_RT_
ra:invoke_viiiiii
ai:__ZNSt3__211char_traitsIcE4moveEPcPKcj
ec:__embind_register_void
jc:getStringOrSymbol
_f:__ZN10emscripten8internal12SetterPolicyIM9FlvClientFvNS_3valEEE3setIS2_EEvRKS5_RT_PNS0_7_EM_VALE
lm:_bitshift64Shl
Lk:__ZN10__cxxabiv112_GLOBAL__N_115parse_simple_idINS0_2DbEEEPKcS4_S4_RT_
bi:__ZNSt3__212basic_stringIcNS_11char_traitsIcEENS_9allocatorIcEEE21__grow_by_and_replaceEjjjjjjPKc
mc:readLatin1String
nc:_emscripten_log_js
a:HEAP8
Td:_h264bsdInterpolateChromaHor
oc:getBasestPointer
Vk:__ZN10__cxxabiv112_GLOBAL__N_111string_pairC2ILj15EEERAT__Kc
pc:getInheritedInstanceCount
tg:__ZN10FlvDecoder11decodeVideoElR12MemoryStream
rc:integerReadValueFromPointer
kg:__ZN12VideoDecoder15decodeVideoSizeEjj
ik:__ZN10__cxxabiv112_GLOBAL__N_123parse_binary_expressionINS0_2DbEEEPKcS4_S4_RKNT_6StringERS5_
Vi:__ZN10__cxxabiv121__vmi_class_type_infoD0Ev
hd:_h264bsdDecodeExpGolombSigned
Ib:__embind_register_class_function
Qj:__ZNSt3__212basic_stringIcNS_11char_traitsIcEEN10__cxxabiv112_GLOBAL__N_112malloc_allocIcEEE7replaceEjjPKc
sf:_mad_bit_crc
Id:_h264bsdWriteOutputBlocks
ll:__ZN10__cxxabiv112_GLOBAL__N_121parse_integer_literalINS0_2DbEEEPKcS4_S4_RKNT_6StringERS5_
ek:__ZNSt3__212basic_stringIcNS_11char_traitsIcEEN10__cxxabiv112_GLOBAL__N_112malloc_allocIcEEE7reserveEj
qg:__ZN10MP3DecoderD2Ev
gk:__ZN10__cxxabiv112_GLOBAL__N_118parse_expr_primaryINS0_2DbEEEPKcS4_S4_RT_
zl:__ZN10__cxxabiv112_GLOBAL__N_118parse_template_argINS0_2DbEEEPKcS4_S4_RT_
Fj:__ZNSt3__212basic_stringIcNS_11char_traitsIcEEN10__cxxabiv112_GLOBAL__N_112malloc_allocIcEEE6appendEPKc
vh:_frexp
lh:_fmt_x
ki:_abort_message
va:simpleReadValueFromPointer
sl:__ZN10__cxxabiv112_GLOBAL__N_116parse_local_nameINS0_2DbEEEPKcS4_S4_RT_
bj:__ZN10__cxxabiv112_GLOBAL__N_15arenaILj4096EEC2Ev
qi:__ZNK10__cxxabiv117__class_type_info16search_above_dstEPNS_19__dynamic_cast_infoEPKvS4_ib
nh:_fmt_u
of:_mad_bit_length
Xg:___syscall_ret
mh:_fmt_o
Ba:getLiveInheritedInstances
Wc:_h264bsdProcessLumaDc
g:HEAPF32
Xh:__ZNSt3__211char_traitsIcE6assignERcRKc
Ri:__ZNK10__cxxabiv123__fundamental_type_info9can_catchEPKNS_16__shim_type_infoERPv
U:enlargeMemory
sm:_sbrk
om:_memcpy
Ia:___cxa_begin_catch
Yb:__embind_register_std_string
eg:__ZN10FlvDecoder12attachCanvasEPN10emscripten3valEb
Md:_h264bsdInterpolateHorQuarter
Nj:__ZN10__cxxabiv112_GLOBAL__N_128parse_pointer_to_member_typeINS0_2DbEEEPKcS4_S4_RT_
Fl:__ZN10__cxxabiv112_GLOBAL__N_111string_pairC2ILj3EEERAT__Kc
Oa:__emscripten_traverse_stack
Vh:__ZNKSt3__221__basic_string_commonILb1EE20__throw_out_of_rangeEv
Pa:ClassHandle_isAliasOf
Tm:b11
wm:dynCall_iiii
Qa:flushPendingDeletes
Tg:_emscripten_get_global_libc
Jl:__ZNSt3__214__split_bufferINS_6vectorIN10__cxxabiv112_GLOBAL__N_111string_pairENS3_11short_allocIS4_Lj4096EEEEERNS5_IS7_Lj4096EEEEC2EjjS9_
gf:_h264bsdProfile
Yh:__ZNSt3__211char_traitsIcE6lengthEPKc
Kd:_h264bsdInterpolateVerQuarter
Ta:__embind_register_class_constructor
vi:__ZNK10__cxxabiv117__class_type_info29process_static_type_below_dstEPNS_19__dynamic_cast_infoEPKvi
ak:__ZN10__cxxabiv112_GLOBAL__N_114parse_decltypeINS0_2DbEEEPKcS4_S4_RT_
ql:__ZN10__cxxabiv112_GLOBAL__N_111string_pairC2ILj14EEERAT__Kc
xj:__ZNSt3__212basic_stringIcNS_11char_traitsIcEEN10__cxxabiv112_GLOBAL__N_112malloc_allocIcEEED2Ev
Ch:___mo_lookup
Nh:_fputc
Rg:_try_realloc_chunk
zj:__ZN10__cxxabiv112_GLOBAL__N_116parse_dot_suffixINS0_2DbEEEPKcS4_S4_RT_
fj:__ZN10__cxxabiv112_GLOBAL__N_18demangleINS0_2DbEEEvPKcS4_RT_Ri
pd:_h264bsdCheckPpsId
vg:__ZNSt3__25dequeI11VideoPacketNS_9allocatorIS1_EEE12emplace_backIJRl12MemoryStreamEEEvDpOT_
fk:__ZNSt3__2plIcNS_11char_traitsIcEEN10__cxxabiv112_GLOBAL__N_112malloc_allocIcEEEENS_12basic_stringIT_T0_T1_EEPKS8_RKSB_
D:Math_pow
qj:__ZN10__cxxabiv112_GLOBAL__N_15arenaILj4096EE17pointer_in_bufferEPc
Mm:b4
Nm:b5
Om:b6
Pm:b7
Im:b0
Jm:b1
Km:b2
Lm:b3
Xd:_h264bsdGetNeighbourPels
Qm:b8
oj:__ZN10__cxxabiv112_GLOBAL__N_111short_allocINSt3__26vectorINS0_11string_pairENS1_IS4_Lj4096EEEEELj4096EE10deallocateEPS6_j
Tj:__ZN10__cxxabiv112_GLOBAL__N_111string_pair9move_fullEv
Jj:__ZN10__cxxabiv112_GLOBAL__N_116parse_array_typeINS0_2DbEEEPKcS4_S4_RT_
pm:_llvm_cttz_i32
Al:__ZNKSt3__26vectorINS0_INS0_IN10__cxxabiv112_GLOBAL__N_111string_pairENS2_11short_allocIS3_Lj4096EEEEENS4_IS6_Lj4096EEEEENS4_IS8_Lj4096EEEE8max_sizeEv
eb:__embind_register_bool
Rk:__ZN10__cxxabiv112_GLOBAL__N_111string_pairC2ILj10EEERAT__Kc
Qf:__ZN9FlvClient11OnWsMessageEN10emscripten3valE
be:_h264bsdAddResidual
Bj:__ZN10__cxxabiv112_GLOBAL__N_110parse_typeINS0_2DbEEEPKcS4_S4_RT_
We:_h264bsdInit
kl:__ZN10__cxxabiv112_GLOBAL__N_15arenaILj4096EE8allocateEj
ib:__embind_register_emval
th:___DOUBLE_BITS_675
lf:_H264SwDecDecode
zk:__ZN10__cxxabiv112_GLOBAL__N_122parse_sizeof_type_exprINS0_2DbEEEPKcS4_S4_RT_
Ve:_h264bsdDecodePicOrderCnt
zb:__embind_register_class
Cc:FUNCTION_TABLE_iiii
nb:__emval_addMethodCaller
Dd:_h264bsdGetRefPicData
ve:_h264bsdResetDpb
vm:_llvm_bswap_i32
b:HEAP16
rb:__emval_run_destructors
Oe:_FilterVerLumaEdge
Qi:__ZN10__cxxabiv123__fundamental_type_infoD0Ev
vf:_mad_synth_init
Oh:__Znwj
Rc:establishStackSpace
tb:RegisteredPointer_destructor
Ye:_h264bsdShutdown
ub:___syscall6
y:tempDouble
Bk:__ZN10__cxxabiv112_GLOBAL__N_128parse_sizeof_param_pack_exprINS0_2DbEEEPKcS4_S4_RT_
Uj:__ZN10__cxxabiv112_GLOBAL__N_117parse_source_nameINS0_2DbEEEPKcS4_S4_RT_
Tk:__ZN10__cxxabiv112_GLOBAL__N_111string_pairC2ILj16EEERAT__Kc
Bc:tempFloat
bg:__ZN9FlvClient4PlayEN10emscripten3valEb
Sk:__ZN10__cxxabiv112_GLOBAL__N_111string_pairC2ILj18EEERAT__Kc
Cb:ClassHandle_isDeleted
kj:__ZN10__cxxabiv112_GLOBAL__N_12DbD2Ev
u:tempInt
od:_h264bsdDecodeSliceHeader
bd:_h264bsdNextMbAddress
Tf:__ZN10emscripten8internal13MethodInvokerIM9FlvClientFvvEvPS2_JEE6invokeERKS4_S5_
Kh:___overflow
$k:__ZN10__cxxabiv112_GLOBAL__N_19base_nameINSt3__212basic_stringIcNS2_11char_traitsIcEENS0_12malloc_allocIcEEEEEET_RS9_
cl:__ZN10__cxxabiv112_GLOBAL__N_111string_pairC2Ev
km:_memset
n:cttz_i8
yj:__ZN10__cxxabiv112_GLOBAL__N_114parse_encodingINS0_2DbEEEPKcS4_S4_RT_
Ol:__ZNSt3__212basic_stringIcNS_11char_traitsIcEEN10__cxxabiv112_GLOBAL__N_112malloc_allocIcEEE5eraseEjj
A:Math_floor
Wk:__ZN10__cxxabiv112_GLOBAL__N_111string_pairC2ILj13EEERAT__Kc
Cg:__ZN12AudioDecoder9decodeMP3ER12MemoryStreamPhS2_
Gl:__ZNSt3__212basic_stringIcNS_11char_traitsIcEEN10__cxxabiv112_GLOBAL__N_112malloc_allocIcEEE7replaceEjjPKcj
Kb:craftInvokerFunction
vl:__ZNSt3__212basic_stringIcNS_11char_traitsIcEEN10__cxxabiv112_GLOBAL__N_112malloc_allocIcEEEaSERKS7_
V:getTotalMemory
bh:_strcmp
Pb:__emval_set_property
Qb:init_emval
Lh:___strdup
xd:_h264bsdDecodeMacroblockLayer
sh:_fmt_fp
N:Math_ceil
o:__THREW__
Tb:_abort
Sg:_dispose_chunk
fh:_printf_core
dl:__ZNSt3__26vectorIN10__cxxabiv112_GLOBAL__N_111string_pairENS2_11short_allocIS3_Lj4096EEEE24__emplace_back_slow_pathIJEEEvDpOT_
Gb:_embind_repr
Wb:validateThis
Gg:__ZN10FlvDecoderD2Ev
nj:__ZNSt3__213__vector_baseINS_6vectorIN10__cxxabiv112_GLOBAL__N_111string_pairENS3_11short_allocIS4_Lj4096EEEEENS5_IS7_Lj4096EEEED2Ev
Ag:__ZNSt3__214__split_bufferIP11VideoPacketRNS_9allocatorIS2_EEE9push_backEOS2_
rf:_mad_bit_read
Gd:_h264bsdSubMbPartMode
Ud:_h264bsdInterpolateChromaVer
rk:__ZN10__cxxabiv112_GLOBAL__N_119parse_dot_star_exprINS0_2DbEEEPKcS4_S4_RT_
ea:nullFunc_iiiii
$b:getInheritedInstance
ja:invoke_viiiii
Ui:__ZNK10__cxxabiv117__pbase_type_info9can_catchEPKNS_16__shim_type_infoERPv
d:HEAPU8
Cd:_h264bsdInterPrediction
af:_h264bsdFlushBuffer
t:inf
mi:__ZN10__cxxabiv117__class_type_infoD0Ev
lc:RegisteredPointer
ye:_h264bsdIsStartOfPicture
Nc:FUNCTION_TABLE_viiii
Hm:dynCall_viiii
ie:_h264bsdDecodeExpGolombTruncated
Hi:__ZSt13get_terminatev
_j:__ZN10__cxxabiv112_GLOBAL__N_110parse_nameINS0_2DbEEEPKcS4_S4_RT_
Y:nullFunc_iiii
el:__ZNKSt3__26vectorIN10__cxxabiv112_GLOBAL__N_111string_pairENS2_11short_allocIS3_Lj4096EEEE8max_sizeEv
s:nan
wi:__ZNK10__cxxabiv117__class_type_info29process_static_type_above_dstEPNS_19__dynamic_cast_infoEPKvS4_i
gc:__emval_register
Ul:__ZN10__cxxabiv112_GLOBAL__N_110save_valueIjEC2ERj
ic:_emscripten_log
Sm:b10
hf:_H264SwDecInit
li:__ZN10__cxxabiv116__shim_type_infoD2Ev
pe:_h264bsdInitMbNeighbours
se:_H264SwDecFree
Vd:_h264bsdFillRow7
Wh:__ZNSt3__211char_traitsIcE4copyEPcPKcj
Fg:__ZN9FlvClientD2Ev
Qg:_realloc
$:nullFunc_vi
Eh:___fwritex
te:_h264bsdStorePicParamSet
qc:__embind_register_float
Mg:___getTypeName
I:Math_asin
Cm:dynCall_viii
Fd:_h264bsdNumSubMbPart
Ef:_III_imdct_l
Ed:_h264bsdPredictSamples
Jd:_h264bsdFillBlock
Hc:FUNCTION_TABLE_ii
gj:__ZN10__cxxabiv112_GLOBAL__N_111string_pairD2Ev
mj:__ZNSt3__213__vector_baseINS_6vectorINS1_IN10__cxxabiv112_GLOBAL__N_111string_pairENS3_11short_allocIS4_Lj4096EEEEENS5_IS7_Lj4096EEEEENS5_IS9_Lj4096EEEED2Ev
Df:_III_imdct_s
Pf:__ZN10emscripten8internal12operator_newI9FlvClientJEEEPT_DpOT0_
ci:__ZNSt3__212basic_stringIcNS_11char_traitsIcEENS_9allocatorIcEEE6resizeEjc
Rl:__ZN10__cxxabiv112_GLOBAL__N_111string_pairC2ILj19EEERAT__Kc
cg:__ZN10emscripten8internal13MethodInvokerIM9FlvClientFvNS_3valEbEvPS2_JS3_bEE6invokeERKS5_S6_PNS0_7_EM_VALEb
